; Function Attrs: mustprogress uwtable
define void @_ZN5faiss12FileIOWriterC2EPKc(ptr noundef nonnull align 8 dereferenceable(49) %0, ptr noundef %1) unnamed_addr #2 align 2 personality ptr @__gxx_personality_v0 {
  %3 = alloca %"class.std::__cxx11::basic_string", align 8
  store ptr getelementptr inbounds ({ [6 x ptr] }, ptr @_ZTVN5faiss8IOWriterE, i64 0, i32 0, i64 2), ptr %0, align 8
  %4 = getelementptr inbounds i8, ptr %0, i64 8
  tail call void @_ZNSt7__cxx1112basic_stringIcSt11char_traitsIcESaIcEEC1Ev(ptr noundef nonnull align 8 dereferenceable(32) %4) #21
  store ptr getelementptr inbounds ({ [6 x ptr] }, ptr @_ZTVN5faiss12FileIOWriterE, i64 0, i32 0, i64 2), ptr %0, align 8
  %5 = getelementptr inbounds i8, ptr %0, i64 40
  store ptr null, ptr %5, align 8
  %6 = getelementptr inbounds i8, ptr %0, i64 48
  store i8 0, ptr %6, align 8
  %7 = invoke noundef nonnull align 8 dereferenceable(32) ptr @_ZNSt7__cxx1112basic_stringIcSt11char_traitsIcESaIcEEaSEPKc(ptr noundef nonnull align 8 dereferenceable(32) %4, ptr noundef %1)
          to label %8 unwind label %26

8:                                                ; preds = %2
  %9 = tail call noalias ptr @fopen(ptr noundef %1, ptr noundef nonnull @.str.9)
  store ptr %9, ptr %5, align 8
  %.not = icmp eq ptr %9, null
  br i1 %.not, label %10, label %33

10:                                               ; preds = %8
  call void @_ZNSt7__cxx1112basic_stringIcSt11char_traitsIcESaIcEEC1Ev(ptr noundef nonnull align 8 dereferenceable(32) %3) #21
  %11 = tail call ptr @__errno_location() #26
  %12 = load i32, ptr %11, align 4
  %13 = call ptr @strerror(i32 noundef %12) #21
  %14 = call i32 (ptr, i64, ptr, ...) @snprintf(ptr noundef null, i64 noundef 0, ptr noundef nonnull @.str.10, ptr noundef nonnull @.str.7, ptr noundef %1, ptr noundef %13) #21
  %15 = add nsw i32 %14, 1
  %16 = sext i32 %15 to i64
  invoke void @_ZNSt7__cxx1112basic_stringIcSt11char_traitsIcESaIcEE6resizeEm(ptr noundef nonnull align 8 dereferenceable(32) %3, i64 noundef %16)
          to label %17 unwind label %28

17:                                               ; preds = %10
  %18 = invoke noundef nonnull align 1 dereferenceable(1) ptr @_ZNSt7__cxx1112basic_stringIcSt11char_traitsIcESaIcEEixEm(ptr noundef nonnull align 8 dereferenceable(32) %3, i64 noundef 0)
          to label %19 unwind label %28

19:                                               ; preds = %17
  %20 = call noundef i64 @_ZNKSt7__cxx1112basic_stringIcSt11char_traitsIcESaIcEE4sizeEv(ptr noundef nonnull align 8 dereferenceable(32) %3) #21
  %21 = load i32, ptr %11, align 4
  %22 = call ptr @strerror(i32 noundef %21) #21
  %23 = call i32 (ptr, i64, ptr, ...) @snprintf(ptr noundef nonnull %18, i64 noundef %20, ptr noundef nonnull @.str.10, ptr noundef nonnull @.str.7, ptr noundef %1, ptr noundef %22) #21
  %24 = call ptr @__cxa_allocate_exception(i64 40) #21
  invoke void @_ZN5faiss14FaissExceptionC1ERKNSt7__cxx1112basic_stringIcSt11char_traitsIcESaIcEEEPKcSA_i(ptr noundef nonnull align 8 dereferenceable(40) %24, ptr noundef nonnull align 8 dereferenceable(32) %3, ptr noundef nonnull @__PRETTY_FUNCTION__._ZN5faiss12FileIOWriterC2EPKc, ptr noundef nonnull @.str.1, i32 noundef 98)
          to label %25 unwind label %30

25:                                               ; preds = %19
  invoke void @__cxa_throw(ptr nonnull %24, ptr nonnull @_ZTIN5faiss14FaissExceptionE, ptr nonnull @_ZN5faiss14FaissExceptionD2Ev) #22
          to label %35 unwind label %28

26:                                               ; preds = %2
  %27 = landingpad { ptr, i32 }
          cleanup
  br label %34

28:                                               ; preds = %25, %17, %10
  %29 = landingpad { ptr, i32 }
          cleanup
  br label %32

30:                                               ; preds = %19
  %31 = landingpad { ptr, i32 }
          cleanup
  call void @__cxa_free_exception(ptr %24) #21
  br label %32

32:                                               ; preds = %30, %28
  %.pn = phi { ptr, i32 } [ %29, %28 ], [ %31, %30 ]
  call void @_ZNSt7__cxx1112basic_stringIcSt11char_traitsIcESaIcEED1Ev(ptr noundef nonnull align 8 dereferenceable(32) %3) #21
  br label %34

33:                                               ; preds = %8
  store i8 1, ptr %6, align 8
  ret void

34:                                               ; preds = %32, %26
  %.pn.pn = phi { ptr, i32 } [ %.pn, %32 ], [ %27, %26 ]
  store ptr getelementptr inbounds ({ [6 x ptr] }, ptr @_ZTVN5faiss8IOWriterE, i64 0, i32 0, i64 2), ptr %0, align 8
  call void @_ZNSt7__cxx1112basic_stringIcSt11char_traitsIcESaIcEED1Ev(ptr noundef nonnull align 8 dereferenceable(32) %4) #21
  resume { ptr, i32 } %.pn.pn

35:                                               ; preds = %25
  unreachable
}